target datalayout = "e-m:e-p270:32:32-p271:32:32-p272:64:64-i64:64-i128:128-f80:128-n8:16:32:64-S128"
target triple = "x86_64-unknown-linux-gnu"

%"class.std::vector.2" = type { %"struct.std::_Vector_base.3" }
%"struct.std::_Vector_base.3" = type { %"struct.std::_Vector_base<double, std::allocator<double>>::_Vector_impl" }
%"struct.std::_Vector_base<double, std::allocator<double>>::_Vector_impl" = type { %"struct.std::_Vector_base<double, std::allocator<double>>::_Vector_impl_data" }
%"struct.std::_Vector_base<double, std::allocator<double>>::_Vector_impl_data" = type { ptr, ptr, ptr }
%"class.QuantLib::ParametricExerciseAdapter" = type { %"class.QuantLib::ExerciseStrategy", %"class.QuantLib::Clone", %"class.std::vector", %"class.std::vector.2", i64, i64, %"class.std::valarray", %"class.std::vector.7", %"class.std::vector.2" }
%"class.QuantLib::ExerciseStrategy" = type { ptr }
%"class.QuantLib::Clone" = type { %"class.std::unique_ptr" }
%"class.std::unique_ptr" = type { %"struct.std::__uniq_ptr_data" }
%"struct.std::__uniq_ptr_data" = type { %"class.std::__uniq_ptr_impl" }
%"class.std::__uniq_ptr_impl" = type { %"class.std::tuple" }
%"class.std::tuple" = type { %"struct.std::_Tuple_impl" }
%"struct.std::_Tuple_impl" = type { %"struct.std::_Head_base.1" }
%"struct.std::_Head_base.1" = type { ptr }
%"class.std::vector" = type { %"struct.std::_Vector_base" }
%"struct.std::_Vector_base" = type { %"struct.std::_Vector_base<std::vector<double>, std::allocator<std::vector<double>>>::_Vector_impl" }
%"struct.std::_Vector_base<std::vector<double>, std::allocator<std::vector<double>>>::_Vector_impl" = type { %"struct.std::_Vector_base<std::vector<double>, std::allocator<std::vector<double>>>::_Vector_impl_data" }
%"struct.std::_Vector_base<std::vector<double>, std::allocator<std::vector<double>>>::_Vector_impl_data" = type { ptr, ptr, ptr }
%"class.std::valarray" = type { i64, ptr }
%"class.std::vector.7" = type { %"struct.std::_Vector_base.8" }
%"struct.std::_Vector_base.8" = type { %"struct.std::_Vector_base<unsigned long, std::allocator<unsigned long>>::_Vector_impl" }
%"struct.std::_Vector_base<unsigned long, std::allocator<unsigned long>>::_Vector_impl" = type { %"struct.std::_Vector_base<unsigned long, std::allocator<unsigned long>>::_Vector_impl_data" }
%"struct.std::_Vector_base<unsigned long, std::allocator<unsigned long>>::_Vector_impl_data" = type { ptr, ptr, ptr }

; Function Attrs: mustprogress nounwind uwtable
define linkonce_odr noundef nonnull align 8 dereferenceable(8) ptr @_ZNSt10_Head_baseILm0EPN8QuantLib29MarketModelParametricExerciseELb0EE7_M_headERKS3_(ptr noundef nonnull align 8 dereferenceable(8) %__b) #3 comdat align 2 {
entry:
  %__b.addr = alloca ptr, align 8
  store ptr %__b, ptr %__b.addr, align 8, !tbaa !3
  %0 = load ptr, ptr %__b.addr, align 8, !tbaa !3
  %_M_head_impl = getelementptr inbounds nuw %"struct.std::_Head_base.1", ptr %0, i32 0, i32 0
  ret ptr %_M_head_impl
}

; Function Attrs: mustprogress nounwind uwtable
define linkonce_odr noundef nonnull align 8 dereferenceable(8) ptr @_ZNSt11_Tuple_implILm0EJPN8QuantLib29MarketModelParametricExerciseESt14default_deleteIS1_EEE7_M_headERKS5_(ptr noundef nonnull align 8 dereferenceable(8) %__t) #3 comdat align 2 {
entry:
  %__t.addr = alloca ptr, align 8
  store ptr %__t, ptr %__t.addr, align 8, !tbaa !3
  %0 = load ptr, ptr %__t.addr, align 8, !tbaa !3
  %call = call noundef nonnull align 8 dereferenceable(8) ptr @_ZNSt10_Head_baseILm0EPN8QuantLib29MarketModelParametricExerciseELb0EE7_M_headERKS3_(ptr noundef nonnull align 8 dereferenceable(8) %0) #13
  ret ptr %call
}

; Function Attrs: mustprogress nounwind uwtable
define linkonce_odr noundef nonnull align 8 dereferenceable(8) ptr @_ZSt12__get_helperILm0EPN8QuantLib29MarketModelParametricExerciseEJSt14default_deleteIS1_EEERKT0_RKSt11_Tuple_implIXT_EJS5_DpT1_EE(ptr noundef nonnull align 8 dereferenceable(8) %__t) #3 comdat {
entry:
  %__t.addr = alloca ptr, align 8
  store ptr %__t, ptr %__t.addr, align 8, !tbaa !3
  %0 = load ptr, ptr %__t.addr, align 8, !tbaa !3
  %call = call noundef nonnull align 8 dereferenceable(8) ptr @_ZNSt11_Tuple_implILm0EJPN8QuantLib29MarketModelParametricExerciseESt14default_deleteIS1_EEE7_M_headERKS5_(ptr noundef nonnull align 8 dereferenceable(8) %0) #13
  ret ptr %call
}

; Function Attrs: mustprogress nounwind uwtable
define linkonce_odr void @_ZNSt12_Destroy_auxILb1EE9__destroyIPdEEvT_S3_(ptr noundef %0, ptr noundef %1) #3 comdat align 2 {
entry:
  %.addr = alloca ptr, align 8
  %.addr1 = alloca ptr, align 8
  store ptr %0, ptr %.addr, align 8, !tbaa !3
  store ptr %1, ptr %.addr1, align 8, !tbaa !3
  ret void
}

; Function Attrs: mustprogress nounwind uwtable
define linkonce_odr noundef nonnull align 8 dereferenceable(8) ptr @_ZSt3getILm0EJPN8QuantLib29MarketModelParametricExerciseESt14default_deleteIS1_EEERKNSt13tuple_elementIXT_ESt5tupleIJDpT0_EEE4typeERKS9_(ptr noundef nonnull align 8 dereferenceable(8) %__t) #3 comdat {
entry:
  %__t.addr = alloca ptr, align 8
  store ptr %__t, ptr %__t.addr, align 8, !tbaa !3
  %0 = load ptr, ptr %__t.addr, align 8, !tbaa !3
  %call = call noundef nonnull align 8 dereferenceable(8) ptr @_ZSt12__get_helperILm0EPN8QuantLib29MarketModelParametricExerciseEJSt14default_deleteIS1_EEERKT0_RKSt11_Tuple_implIXT_EJS5_DpT1_EE(ptr noundef nonnull align 8 dereferenceable(8) %0) #13
  ret ptr %call
}

; Function Attrs: inlinehint mustprogress uwtable
define linkonce_odr void @_ZSt8_DestroyIPdEvT_S1_(ptr noundef %__first, ptr noundef %__last) #2 comdat {
entry:
  %__first.addr = alloca ptr, align 8
  %__last.addr = alloca ptr, align 8
  store ptr %__first, ptr %__first.addr, align 8, !tbaa !3
  store ptr %__last, ptr %__last.addr, align 8, !tbaa !3
  %0 = load ptr, ptr %__first.addr, align 8, !tbaa !3
  %1 = load ptr, ptr %__last.addr, align 8, !tbaa !3
  call void @_ZNSt12_Destroy_auxILb1EE9__destroyIPdEEvT_S3_(ptr noundef %0, ptr noundef %1)
  ret void
}

; Function Attrs: mustprogress nounwind uwtable
define linkonce_odr noundef ptr @_ZNKSt15__uniq_ptr_implIN8QuantLib29MarketModelParametricExerciseESt14default_deleteIS1_EE6_M_ptrEv(ptr noundef nonnull align 8 dereferenceable(8) %this) #3 comdat align 2 {
entry:
  %this.addr = alloca ptr, align 8
  store ptr %this, ptr %this.addr, align 8, !tbaa !3
  %this1 = load ptr, ptr %this.addr, align 8
  %_M_t = getelementptr inbounds nuw %"class.std::__uniq_ptr_impl", ptr %this1, i32 0, i32 0
  %call = call noundef nonnull align 8 dereferenceable(8) ptr @_ZSt3getILm0EJPN8QuantLib29MarketModelParametricExerciseESt14default_deleteIS1_EEERKNSt13tuple_elementIXT_ESt5tupleIJDpT0_EEE4typeERKS9_(ptr noundef nonnull align 8 dereferenceable(8) %_M_t) #13
  %0 = load ptr, ptr %call, align 8, !tbaa !3
  ret ptr %0
}

; Function Attrs: noinline noreturn nounwind uwtable
define linkonce_odr hidden void @__clang_call_terminate(ptr noundef %0) #9 comdat {
  %2 = call ptr @__cxa_begin_catch(ptr %0) #13
  call void @_ZSt9terminatev() #14
  unreachable
}

; Function Attrs: inlinehint mustprogress uwtable
define linkonce_odr void @_ZSt8_DestroyIPddEvT_S1_RSaIT0_E(ptr noundef %__first, ptr noundef %__last, ptr noundef nonnull align 1 dereferenceable(1) %0) #2 comdat {
entry:
  %__first.addr = alloca ptr, align 8
  %__last.addr = alloca ptr, align 8
  %.addr = alloca ptr, align 8
  store ptr %__first, ptr %__first.addr, align 8, !tbaa !3
  store ptr %__last, ptr %__last.addr, align 8, !tbaa !3
  store ptr %0, ptr %.addr, align 8, !tbaa !3
  %1 = load ptr, ptr %__first.addr, align 8, !tbaa !3
  %2 = load ptr, ptr %__last.addr, align 8, !tbaa !3
  call void @_ZSt8_DestroyIPdEvT_S1_(ptr noundef %1, ptr noundef %2)
  ret void
}

; Function Attrs: mustprogress nounwind uwtable
define linkonce_odr noundef nonnull align 1 dereferenceable(1) ptr @_ZNSt12_Vector_baseIdSaIdEE19_M_get_Tp_allocatorEv(ptr noundef nonnull align 8 dereferenceable(24) %this) #3 comdat align 2 {
entry:
  %this.addr = alloca ptr, align 8
  store ptr %this, ptr %this.addr, align 8, !tbaa !3
  %this1 = load ptr, ptr %this.addr, align 8
  %_M_impl = getelementptr inbounds nuw %"struct.std::_Vector_base.3", ptr %this1, i32 0, i32 0
  ret ptr %_M_impl
}

; Function Attrs: mustprogress nounwind uwtable
define linkonce_odr noundef ptr @_ZNKSt10unique_ptrIN8QuantLib29MarketModelParametricExerciseESt14default_deleteIS1_EE3getEv(ptr noundef nonnull align 8 dereferenceable(8) %this) #3 comdat align 2 {
entry:
  %this.addr = alloca ptr, align 8
  store ptr %this, ptr %this.addr, align 8, !tbaa !3
  %this1 = load ptr, ptr %this.addr, align 8
  %_M_t = getelementptr inbounds nuw %"class.std::unique_ptr", ptr %this1, i32 0, i32 0
  %call = call noundef ptr @_ZNKSt15__uniq_ptr_implIN8QuantLib29MarketModelParametricExerciseESt14default_deleteIS1_EE6_M_ptrEv(ptr noundef nonnull align 8 dereferenceable(8) %_M_t) #13
  ret ptr %call
}

; Function Attrs: mustprogress nounwind uwtable
define linkonce_odr void @_ZNSt6vectorIdSaIdEE15_M_erase_at_endEPd(ptr noundef nonnull align 8 dereferenceable(24) %this, ptr noundef %__pos) #3 comdat align 2 personality ptr @__gxx_personality_v0 {
entry:
  %this.addr = alloca ptr, align 8
  %__pos.addr = alloca ptr, align 8
  %__n = alloca i64, align 8
  store ptr %this, ptr %this.addr, align 8, !tbaa !3
  store ptr %__pos, ptr %__pos.addr, align 8, !tbaa !3
  %this1 = load ptr, ptr %this.addr, align 8
  call void @llvm.lifetime.start.p0(i64 8, ptr %__n) #13
  %_M_impl = getelementptr inbounds nuw %"struct.std::_Vector_base.3", ptr %this1, i32 0, i32 0
  %_M_finish = getelementptr inbounds nuw %"struct.std::_Vector_base<double, std::allocator<double>>::_Vector_impl_data", ptr %_M_impl, i32 0, i32 1
  %0 = load ptr, ptr %_M_finish, align 8, !tbaa !42
  %1 = load ptr, ptr %__pos.addr, align 8, !tbaa !3
  %sub.ptr.lhs.cast = ptrtoint ptr %0 to i64
  %sub.ptr.rhs.cast = ptrtoint ptr %1 to i64
  %sub.ptr.sub = sub i64 %sub.ptr.lhs.cast, %sub.ptr.rhs.cast
  %sub.ptr.div = sdiv exact i64 %sub.ptr.sub, 8
  store i64 %sub.ptr.div, ptr %__n, align 8, !tbaa !34
  %2 = load i64, ptr %__n, align 8, !tbaa !34
  %tobool = icmp ne i64 %2, 0
  br i1 %tobool, label %if.then, label %if.end

if.then:                                          ; preds = %entry
  %3 = load ptr, ptr %__pos.addr, align 8, !tbaa !3
  %_M_impl2 = getelementptr inbounds nuw %"struct.std::_Vector_base.3", ptr %this1, i32 0, i32 0
  %_M_finish3 = getelementptr inbounds nuw %"struct.std::_Vector_base<double, std::allocator<double>>::_Vector_impl_data", ptr %_M_impl2, i32 0, i32 1
  %4 = load ptr, ptr %_M_finish3, align 8, !tbaa !42
  %call = call noundef nonnull align 1 dereferenceable(1) ptr @_ZNSt12_Vector_baseIdSaIdEE19_M_get_Tp_allocatorEv(ptr noundef nonnull align 8 dereferenceable(24) %this1) #13
  invoke void @_ZSt8_DestroyIPddEvT_S1_RSaIT0_E(ptr noundef %3, ptr noundef %4, ptr noundef nonnull align 1 dereferenceable(1) %call)
          to label %invoke.cont unwind label %terminate.lpad

invoke.cont:                                      ; preds = %if.then
  %5 = load ptr, ptr %__pos.addr, align 8, !tbaa !3
  %_M_impl4 = getelementptr inbounds nuw %"struct.std::_Vector_base.3", ptr %this1, i32 0, i32 0
  %_M_finish5 = getelementptr inbounds nuw %"struct.std::_Vector_base<double, std::allocator<double>>::_Vector_impl_data", ptr %_M_impl4, i32 0, i32 1
  store ptr %5, ptr %_M_finish5, align 8, !tbaa !42
  br label %if.end

if.end:                                           ; preds = %invoke.cont, %entry
  call void @llvm.lifetime.end.p0(i64 8, ptr %__n) #13
  ret void

terminate.lpad:                                   ; preds = %if.then
  %6 = landingpad { ptr, i32 }
          catch ptr null
  %7 = extractvalue { ptr, i32 } %6, 0
  call void @__clang_call_terminate(ptr %7) #14
  unreachable
}

; Function Attrs: mustprogress nounwind uwtable
define linkonce_odr noundef i64 @_ZNKSt6vectorIdSaIdEE4sizeEv(ptr noundef nonnull align 8 dereferenceable(24) %this) #3 comdat align 2 {
entry:
  %this.addr = alloca ptr, align 8
  store ptr %this, ptr %this.addr, align 8, !tbaa !3
  %this1 = load ptr, ptr %this.addr, align 8
  %_M_impl = getelementptr inbounds nuw %"struct.std::_Vector_base.3", ptr %this1, i32 0, i32 0
  %_M_finish = getelementptr inbounds nuw %"struct.std::_Vector_base<double, std::allocator<double>>::_Vector_impl_data", ptr %_M_impl, i32 0, i32 1
  %0 = load ptr, ptr %_M_finish, align 8, !tbaa !42
  %_M_impl2 = getelementptr inbounds nuw %"struct.std::_Vector_base.3", ptr %this1, i32 0, i32 0
  %_M_start = getelementptr inbounds nuw %"struct.std::_Vector_base<double, std::allocator<double>>::_Vector_impl_data", ptr %_M_impl2, i32 0, i32 0
  %1 = load ptr, ptr %_M_start, align 8, !tbaa !41
  %sub.ptr.lhs.cast = ptrtoint ptr %0 to i64
  %sub.ptr.rhs.cast = ptrtoint ptr %1 to i64
  %sub.ptr.sub = sub i64 %sub.ptr.lhs.cast, %sub.ptr.rhs.cast
  %sub.ptr.div = sdiv exact i64 %sub.ptr.sub, 8
  ret i64 %sub.ptr.div
}

; Function Attrs: mustprogress nounwind uwtable
define linkonce_odr noundef nonnull align 8 dereferenceable(24) ptr @_ZNKSt6vectorIS_IdSaIdEESaIS1_EEixEm(ptr noundef nonnull align 8 dereferenceable(24) %this, i64 noundef %__n) #3 comdat align 2 {
entry:
  %this.addr = alloca ptr, align 8
  %__n.addr = alloca i64, align 8
  store ptr %this, ptr %this.addr, align 8, !tbaa !3
  store i64 %__n, ptr %__n.addr, align 8, !tbaa !34
  %this1 = load ptr, ptr %this.addr, align 8
  %_M_impl = getelementptr inbounds nuw %"struct.std::_Vector_base", ptr %this1, i32 0, i32 0
  %_M_start = getelementptr inbounds nuw %"struct.std::_Vector_base<std::vector<double>, std::allocator<std::vector<double>>>::_Vector_impl_data", ptr %_M_impl, i32 0, i32 0
  %0 = load ptr, ptr %_M_start, align 8, !tbaa !48
  %1 = load i64, ptr %__n.addr, align 8, !tbaa !34
  %add.ptr = getelementptr inbounds nuw %"class.std::vector.2", ptr %0, i64 %1
  ret ptr %add.ptr
}

; Function Attrs: inlinehint mustprogress nounwind uwtable
define linkonce_odr noundef ptr @_ZNK8QuantLib5CloneINS_29MarketModelParametricExerciseEEptEv(ptr noundef nonnull align 8 dereferenceable(8) %this) #1 comdat align 2 {
entry:
  %this.addr = alloca ptr, align 8
  store ptr %this, ptr %this.addr, align 8, !tbaa !3
  %this1 = load ptr, ptr %this.addr, align 8
  %ptr_ = getelementptr inbounds nuw %"class.QuantLib::Clone", ptr %this1, i32 0, i32 0
  %call = call noundef ptr @_ZNKSt10unique_ptrIN8QuantLib29MarketModelParametricExerciseESt14default_deleteIS1_EE3getEv(ptr noundef nonnull align 8 dereferenceable(8) %ptr_) #13
  ret ptr %call
}

; Function Attrs: mustprogress uwtable
define linkonce_odr void @_ZNSt6vectorIdSaIdEE6resizeEm(ptr noundef nonnull align 8 dereferenceable(24) %this, i64 noundef %__new_size) #0 comdat align 2 {
entry:
  %this.addr = alloca ptr, align 8
  %__new_size.addr = alloca i64, align 8
  store ptr %this, ptr %this.addr, align 8, !tbaa !3
  store i64 %__new_size, ptr %__new_size.addr, align 8, !tbaa !34
  %this1 = load ptr, ptr %this.addr, align 8
  %0 = load i64, ptr %__new_size.addr, align 8, !tbaa !34
  %call = call noundef i64 @_ZNKSt6vectorIdSaIdEE4sizeEv(ptr noundef nonnull align 8 dereferenceable(24) %this1) #13
  %cmp = icmp ugt i64 %0, %call
  br i1 %cmp, label %if.then, label %if.else

if.then:                                          ; preds = %entry
  %1 = load i64, ptr %__new_size.addr, align 8, !tbaa !34
  %call2 = call noundef i64 @_ZNKSt6vectorIdSaIdEE4sizeEv(ptr noundef nonnull align 8 dereferenceable(24) %this1) #13
  %sub = sub i64 %1, %call2
  call void @_ZNSt6vectorIdSaIdEE17_M_default_appendEm(ptr noundef nonnull align 8 dereferenceable(24) %this1, i64 noundef %sub)
  br label %if.end6

if.else:                                          ; preds = %entry
  %2 = load i64, ptr %__new_size.addr, align 8, !tbaa !34
  %call3 = call noundef i64 @_ZNKSt6vectorIdSaIdEE4sizeEv(ptr noundef nonnull align 8 dereferenceable(24) %this1) #13
  %cmp4 = icmp ult i64 %2, %call3
  br i1 %cmp4, label %if.then5, label %if.end

if.then5:                                         ; preds = %if.else
  %_M_impl = getelementptr inbounds nuw %"struct.std::_Vector_base.3", ptr %this1, i32 0, i32 0
  %_M_start = getelementptr inbounds nuw %"struct.std::_Vector_base<double, std::allocator<double>>::_Vector_impl_data", ptr %_M_impl, i32 0, i32 0
  %3 = load ptr, ptr %_M_start, align 8, !tbaa !41
  %4 = load i64, ptr %__new_size.addr, align 8, !tbaa !34
  %add.ptr = getelementptr inbounds nuw double, ptr %3, i64 %4
  call void @_ZNSt6vectorIdSaIdEE15_M_erase_at_endEPd(ptr noundef nonnull align 8 dereferenceable(24) %this1, ptr noundef %add.ptr) #13
  br label %if.end

if.end:                                           ; preds = %if.then5, %if.else
  br label %if.end6

if.end6:                                          ; preds = %if.end, %if.then
  ret void
}

; Function Attrs: mustprogress nounwind uwtable
define linkonce_odr noundef nonnull align 8 dereferenceable(8) ptr @_ZNKSt6vectorImSaImEEixEm(ptr noundef nonnull align 8 dereferenceable(24) %this, i64 noundef %__n) #3 comdat align 2 {
entry:
  %this.addr = alloca ptr, align 8
  %__n.addr = alloca i64, align 8
  store ptr %this, ptr %this.addr, align 8, !tbaa !3
  store i64 %__n, ptr %__n.addr, align 8, !tbaa !34
  %this1 = load ptr, ptr %this.addr, align 8
  %_M_impl = getelementptr inbounds nuw %"struct.std::_Vector_base.8", ptr %this1, i32 0, i32 0
  %_M_start = getelementptr inbounds nuw %"struct.std::_Vector_base<unsigned long, std::allocator<unsigned long>>::_Vector_impl_data", ptr %_M_impl, i32 0, i32 0
  %0 = load ptr, ptr %_M_start, align 8, !tbaa !45
  %1 = load i64, ptr %__n.addr, align 8, !tbaa !34
  %add.ptr = getelementptr inbounds nuw i64, ptr %0, i64 %1
  ret ptr %add.ptr
}

; Function Attrs: mustprogress uwtable
define noundef zeroext i1 @_ZNK8QuantLib25ParametricExerciseAdapter8exerciseERKNS_10CurveStateE(ptr noundef nonnull align 8 dereferenceable(144) %this, ptr noundef nonnull align 1 %currentState) unnamed_addr #0 align 2 {
entry:
  %this.addr = alloca ptr, align 8
  %currentState.addr = alloca ptr, align 8
  store ptr %this, ptr %this.addr, align 8, !tbaa !3
  store ptr %currentState, ptr %currentState.addr, align 8, !tbaa !3
  %this1 = load ptr, ptr %this.addr, align 8
  %variables_ = getelementptr inbounds nuw %"class.QuantLib::ParametricExerciseAdapter", ptr %this1, i32 0, i32 8
  %numberOfVariables_ = getelementptr inbounds nuw %"class.QuantLib::ParametricExerciseAdapter", ptr %this1, i32 0, i32 7
  %currentExercise_ = getelementptr inbounds nuw %"class.QuantLib::ParametricExerciseAdapter", ptr %this1, i32 0, i32 5
  %0 = load i64, ptr %currentExercise_, align 8, !tbaa !33
  %sub = sub i64 %0, 1
  %call = call noundef nonnull align 8 dereferenceable(8) ptr @_ZNKSt6vectorImSaImEEixEm(ptr noundef nonnull align 8 dereferenceable(24) %numberOfVariables_, i64 noundef %sub) #13
  %1 = load i64, ptr %call, align 8, !tbaa !34
  call void @_ZNSt6vectorIdSaIdEE6resizeEm(ptr noundef nonnull align 8 dereferenceable(24) %variables_, i64 noundef %1)
  %exercise_ = getelementptr inbounds nuw %"class.QuantLib::ParametricExerciseAdapter", ptr %this1, i32 0, i32 1
  %call2 = call noundef ptr @_ZNK8QuantLib5CloneINS_29MarketModelParametricExerciseEEptEv(ptr noundef nonnull align 8 dereferenceable(8) %exercise_)
  %2 = load ptr, ptr %currentState.addr, align 8, !tbaa !3
  %variables_3 = getelementptr inbounds nuw %"class.QuantLib::ParametricExerciseAdapter", ptr %this1, i32 0, i32 8
  %vtable = load ptr, ptr %call2, align 8, !tbaa !7
  %vfn = getelementptr inbounds ptr, ptr %vtable, i64 8
  %3 = load ptr, ptr %vfn, align 8
  call void %3(ptr noundef nonnull align 8 dereferenceable(8) %call2, ptr noundef nonnull align 1 %2, ptr noundef nonnull align 8 dereferenceable(24) %variables_3)
  %exercise_4 = getelementptr inbounds nuw %"class.QuantLib::ParametricExerciseAdapter", ptr %this1, i32 0, i32 1
  %call5 = call noundef ptr @_ZNK8QuantLib5CloneINS_29MarketModelParametricExerciseEEptEv(ptr noundef nonnull align 8 dereferenceable(8) %exercise_4)
  %add.ptr = getelementptr inbounds i8, ptr %call5, i64 8
  %currentExercise_6 = getelementptr inbounds nuw %"class.QuantLib::ParametricExerciseAdapter", ptr %this1, i32 0, i32 5
  %4 = load i64, ptr %currentExercise_6, align 8, !tbaa !33
  %sub7 = sub i64 %4, 1
  %parameters_ = getelementptr inbounds nuw %"class.QuantLib::ParametricExerciseAdapter", ptr %this1, i32 0, i32 2
  %currentExercise_8 = getelementptr inbounds nuw %"class.QuantLib::ParametricExerciseAdapter", ptr %this1, i32 0, i32 5
  %5 = load i64, ptr %currentExercise_8, align 8, !tbaa !33
  %sub9 = sub i64 %5, 1
  %call10 = call noundef nonnull align 8 dereferenceable(24) ptr @_ZNKSt6vectorIS_IdSaIdEESaIS1_EEixEm(ptr noundef nonnull align 8 dereferenceable(24) %parameters_, i64 noundef %sub9) #13
  %variables_11 = getelementptr inbounds nuw %"class.QuantLib::ParametricExerciseAdapter", ptr %this1, i32 0, i32 8
  %vtable12 = load ptr, ptr %add.ptr, align 8, !tbaa !7
  %vfn13 = getelementptr inbounds ptr, ptr %vtable12, i64 4
  %6 = load ptr, ptr %vfn13, align 8
  %call14 = call noundef zeroext i1 %6(ptr noundef nonnull align 8 dereferenceable(8) %add.ptr, i64 noundef %sub7, ptr noundef nonnull align 8 dereferenceable(24) %call10, ptr noundef nonnull align 8 dereferenceable(24) %variables_11)
  ret i1 %call14
}