; Function Attrs: mustprogress uwtable
define noundef zeroext i1 @_ZNK8QuantLib25ParametricExerciseAdapter8exerciseERKNS_10CurveStateE(ptr noundef nonnull align 8 dereferenceable(144) %this, ptr noundef nonnull align 1 %currentState) unnamed_addr #0 align 2 personality ptr @__gxx_personality_v0 {
entry:
  %variables_ = getelementptr inbounds nuw i8, ptr %this, i64 120
  %numberOfVariables_ = getelementptr inbounds nuw i8, ptr %this, i64 96
  %currentExercise_ = getelementptr inbounds nuw i8, ptr %this, i64 72
  %0 = load i64, ptr %currentExercise_, align 8, !tbaa !52
  %1 = load ptr, ptr %numberOfVariables_, align 8, !tbaa !29
  %2 = getelementptr i64, ptr %1, i64 %0
  %add.ptr.i = getelementptr i8, ptr %2, i64 -8
  %3 = load i64, ptr %add.ptr.i, align 8, !tbaa !53
  %_M_finish.i.i = getelementptr inbounds nuw i8, ptr %this, i64 128
  %4 = load ptr, ptr %_M_finish.i.i, align 8, !tbaa !25
  %5 = load ptr, ptr %variables_, align 8, !tbaa !26
  %sub.ptr.lhs.cast.i.i = ptrtoint ptr %4 to i64
  %sub.ptr.rhs.cast.i.i = ptrtoint ptr %5 to i64
  %sub.ptr.sub.i.i = sub i64 %sub.ptr.lhs.cast.i.i, %sub.ptr.rhs.cast.i.i
  %sub.ptr.div.i.i = ashr exact i64 %sub.ptr.sub.i.i, 3
  %cmp.i = icmp ugt i64 %3, %sub.ptr.div.i.i
  br i1 %cmp.i, label %if.then.i, label %if.else.i

if.then.i:                                        ; preds = %entry
  %sub.i = sub nuw i64 %3, %sub.ptr.div.i.i
  tail call void @_ZNSt6vectorIdSaIdEE17_M_default_appendEm(ptr noundef nonnull align 8 dereferenceable(24) %variables_, i64 noundef %sub.i)
  br label %_ZNSt6vectorIdSaIdEE6resizeEm.exit

if.else.i:                                        ; preds = %entry
  %cmp4.i = icmp ult i64 %3, %sub.ptr.div.i.i
  br i1 %cmp4.i, label %if.then5.i, label %_ZNSt6vectorIdSaIdEE6resizeEm.exit

if.then5.i:                                       ; preds = %if.else.i
  %add.ptr.i1 = getelementptr inbounds nuw double, ptr %5, i64 %3
  %tobool.not.i.i = icmp eq ptr %4, %add.ptr.i1
  br i1 %tobool.not.i.i, label %_ZNSt6vectorIdSaIdEE6resizeEm.exit, label %invoke.cont.i.i

invoke.cont.i.i:                                  ; preds = %if.then5.i
  store ptr %add.ptr.i1, ptr %_M_finish.i.i, align 8, !tbaa !25
  br label %_ZNSt6vectorIdSaIdEE6resizeEm.exit

_ZNSt6vectorIdSaIdEE6resizeEm.exit:               ; preds = %if.then.i, %if.else.i, %if.then5.i, %invoke.cont.i.i
  %exercise_ = getelementptr inbounds nuw i8, ptr %this, i64 8
  %6 = load ptr, ptr %exercise_, align 8, !tbaa !6
  %vtable = load ptr, ptr %6, align 8, !tbaa !3
  %vfn = getelementptr inbounds i8, ptr %vtable, i64 64
  %7 = load ptr, ptr %vfn, align 8
  tail call void %7(ptr noundef nonnull align 8 dereferenceable(8) %6, ptr noundef nonnull align 1 %currentState, ptr noundef nonnull align 8 dereferenceable(24) %variables_)
  %8 = load ptr, ptr %exercise_, align 8, !tbaa !6
  %add.ptr = getelementptr inbounds i8, ptr %8, i64 8
  %9 = load i64, ptr %currentExercise_, align 8, !tbaa !52
  %sub7 = add i64 %9, -1
  %parameters_ = getelementptr inbounds nuw i8, ptr %this, i64 16
  %10 = load ptr, ptr %parameters_, align 8, !tbaa !9
  %add.ptr.i2 = getelementptr inbounds nuw %"class.std::vector.2", ptr %10, i64 %sub7
  %vtable12 = load ptr, ptr %add.ptr, align 8, !tbaa !3
  %vfn13 = getelementptr inbounds i8, ptr %vtable12, i64 32
  %11 = load ptr, ptr %vfn13, align 8
  %call14 = tail call noundef zeroext i1 %11(ptr noundef nonnull align 8 dereferenceable(8) %add.ptr, i64 noundef %sub7, ptr noundef nonnull align 8 dereferenceable(24) %add.ptr.i2, ptr noundef nonnull align 8 dereferenceable(24) %variables_)
  ret i1 %call14
}